target datalayout = "e-m:e-p270:32:32-p271:32:32-p272:64:64-i64:64-i128:128-f80:128-n8:16:32:64-S128"
target triple = "x86_64-unknown-linux-gnu"

%"class.icu_75::NFSubstitution" = type { %"class.icu_75::UObject", i32, ptr, ptr }
%"class.icu_75::UObject" = type { ptr }
%"class.icu_75::UnicodeString" = type { %"class.icu_75::Replaceable", %"union.icu_75::UnicodeString::StackBufferOrFields" }
%"class.icu_75::Replaceable" = type { %"class.icu_75::UObject" }
%"union.icu_75::UnicodeString::StackBufferOrFields" = type { %struct.anon.0, [32 x i8] }
%struct.anon.0 = type { i16, i32, i32, ptr }
%struct.anon = type { i16, [27 x i16] }

@_ZTVN6icu_757UObjectE = external unnamed_addr constant { [5 x ptr] }, align 8
@_ZTVN6icu_7513UnicodeStringE = external unnamed_addr constant { [13 x ptr] }, align 8
@_ZTVN6icu_7511ReplaceableE = external unnamed_addr constant { [13 x ptr] }, align 8

; Function Attrs: mustprogress nounwind uwtable
define linkonce_odr noundef i32 @_ZNK6icu_7513UnicodeString14getShortLengthEv(ptr noundef nonnull align 8 dereferenceable(64) %this) #0 comdat align 2 {
entry:
  %this.addr = alloca ptr, align 8
  store ptr %this, ptr %this.addr, align 8
  %this1 = load ptr, ptr %this.addr, align 8
  %fUnion = getelementptr inbounds %"class.icu_75::UnicodeString", ptr %this1, i32 0, i32 1
  %fLengthAndFlags = getelementptr inbounds %struct.anon.0, ptr %fUnion, i32 0, i32 0
  %0 = load i16, ptr %fLengthAndFlags, align 8
  %conv = sext i16 %0 to i32
  %shr = ashr i32 %conv, 5
  ret i32 %shr
}

; Function Attrs: mustprogress nounwind uwtable
define linkonce_odr noundef signext i8 @_ZNK6icu_7513UnicodeString14hasShortLengthEv(ptr noundef nonnull align 8 dereferenceable(64) %this) #0 comdat align 2 {
entry:
  %this.addr = alloca ptr, align 8
  store ptr %this, ptr %this.addr, align 8
  %this1 = load ptr, ptr %this.addr, align 8
  %fUnion = getelementptr inbounds %"class.icu_75::UnicodeString", ptr %this1, i32 0, i32 1
  %fLengthAndFlags = getelementptr inbounds %struct.anon.0, ptr %fUnion, i32 0, i32 0
  %0 = load i16, ptr %fLengthAndFlags, align 8
  %conv = sext i16 %0 to i32
  %cmp = icmp sge i32 %conv, 0
  %conv2 = zext i1 %cmp to i8
  ret i8 %conv2
}

; Function Attrs: mustprogress nounwind uwtable
define linkonce_odr void @_ZN6icu_757UObjectC2Ev(ptr noundef nonnull align 8 dereferenceable(8) %this) unnamed_addr #0 comdat align 2 {
entry:
  %this.addr = alloca ptr, align 8
  store ptr %this, ptr %this.addr, align 8
  %this1 = load ptr, ptr %this.addr, align 8
  store ptr getelementptr inbounds ({ [5 x ptr] }, ptr @_ZTVN6icu_757UObjectE, i32 0, i32 0, i32 2), ptr %this1, align 8
  ret void
}

; Function Attrs: mustprogress uwtable
define linkonce_odr noundef i32 @_ZNK6icu_7513UnicodeString6lengthEv(ptr noundef nonnull align 8 dereferenceable(64) %this) #2 comdat align 2 {
entry:
  %this.addr = alloca ptr, align 8
  store ptr %this, ptr %this.addr, align 8
  %this1 = load ptr, ptr %this.addr, align 8
  %call = call noundef signext i8 @_ZNK6icu_7513UnicodeString14hasShortLengthEv(ptr noundef nonnull align 8 dereferenceable(64) %this1)
  %tobool = icmp ne i8 %call, 0
  br i1 %tobool, label %cond.true, label %cond.false

cond.true:                                        ; preds = %entry
  %call2 = call noundef i32 @_ZNK6icu_7513UnicodeString14getShortLengthEv(ptr noundef nonnull align 8 dereferenceable(64) %this1)
  br label %cond.end

cond.false:                                       ; preds = %entry
  %fUnion = getelementptr inbounds %"class.icu_75::UnicodeString", ptr %this1, i32 0, i32 1
  %fLength = getelementptr inbounds %struct.anon.0, ptr %fUnion, i32 0, i32 1
  %0 = load i32, ptr %fLength, align 4
  br label %cond.end

cond.end:                                         ; preds = %cond.false, %cond.true
  %cond = phi i32 [ %call2, %cond.true ], [ %0, %cond.false ]
  ret i32 %cond
}

; Function Attrs: mustprogress nounwind uwtable
define linkonce_odr void @_ZN6icu_7511ReplaceableC2Ev(ptr noundef nonnull align 8 dereferenceable(8) %this) unnamed_addr #0 comdat align 2 {
entry:
  %this.addr = alloca ptr, align 8
  store ptr %this, ptr %this.addr, align 8
  %this1 = load ptr, ptr %this.addr, align 8
  call void @_ZN6icu_757UObjectC2Ev(ptr noundef nonnull align 8 dereferenceable(8) %this1) #6
  store ptr getelementptr inbounds ({ [13 x ptr] }, ptr @_ZTVN6icu_7511ReplaceableE, i32 0, i32 0, i32 2), ptr %this1, align 8
  ret void
}

; Function Attrs: mustprogress uwtable
define linkonce_odr noundef nonnull align 8 dereferenceable(64) ptr @_ZN6icu_7513UnicodeString6insertEiRKS0_(ptr noundef nonnull align 8 dereferenceable(64) %this, i32 noundef %start, ptr noundef nonnull align 8 dereferenceable(64) %srcText) #2 comdat align 2 {
entry:
  %this.addr = alloca ptr, align 8
  %start.addr = alloca i32, align 4
  %srcText.addr = alloca ptr, align 8
  store ptr %this, ptr %this.addr, align 8
  store i32 %start, ptr %start.addr, align 4
  store ptr %srcText, ptr %srcText.addr, align 8
  %this1 = load ptr, ptr %this.addr, align 8
  %0 = load i32, ptr %start.addr, align 4
  %1 = load ptr, ptr %srcText.addr, align 8
  %2 = load ptr, ptr %srcText.addr, align 8
  %call = call noundef i32 @_ZNK6icu_7513UnicodeString6lengthEv(ptr noundef nonnull align 8 dereferenceable(64) %2)
  %call2 = call noundef nonnull align 8 dereferenceable(64) ptr @_ZN6icu_7513UnicodeString9doReplaceEiiRKS0_ii(ptr noundef nonnull align 8 dereferenceable(64) %this1, i32 noundef %0, i32 noundef 0, ptr noundef nonnull align 8 dereferenceable(64) %1, i32 noundef 0, i32 noundef %call)
  ret ptr %call2
}

; Function Attrs: mustprogress uwtable
define linkonce_odr void @_ZN6icu_7513UnicodeStringC2Ev(ptr noundef nonnull align 8 dereferenceable(64) %this) unnamed_addr #2 comdat align 2 {
entry:
  %this.addr = alloca ptr, align 8
  store ptr %this, ptr %this.addr, align 8
  %this1 = load ptr, ptr %this.addr, align 8
  call void @_ZN6icu_7511ReplaceableC2Ev(ptr noundef nonnull align 8 dereferenceable(8) %this1)
  store ptr getelementptr inbounds ({ [13 x ptr] }, ptr @_ZTVN6icu_7513UnicodeStringE, i32 0, i32 0, i32 2), ptr %this1, align 8
  %fUnion2 = getelementptr inbounds %"class.icu_75::UnicodeString", ptr %this1, i32 0, i32 1
  %fLengthAndFlags = getelementptr inbounds %struct.anon, ptr %fUnion2, i32 0, i32 0
  store i16 2, ptr %fLengthAndFlags, align 8
  ret void
}

; Function Attrs: mustprogress uwtable
define void @_ZNK6icu_7514NFSubstitution14doSubstitutionEdRNS_13UnicodeStringEiiR10UErrorCode(ptr noundef nonnull align 8 dereferenceable(32) %this, double noundef %number, ptr noundef nonnull align 8 dereferenceable(64) %toInsertInto, i32 noundef %_pos, i32 noundef %recursionCount, ptr noundef nonnull align 4 dereferenceable(4) %status) unnamed_addr #2 align 2 personality ptr @__gxx_personality_v0 {
entry:
  %this.addr = alloca ptr, align 8
  %number.addr = alloca double, align 8
  %toInsertInto.addr = alloca ptr, align 8
  %_pos.addr = alloca i32, align 4
  %recursionCount.addr = alloca i32, align 4
  %status.addr = alloca ptr, align 8
  %numberToFormat = alloca double, align 8
  %infiniteRule = alloca ptr, align 8
  %temp = alloca %"class.icu_75::UnicodeString", align 8
  %exn.slot = alloca ptr, align 8
  %ehselector.slot = alloca i32, align 4
  store ptr %this, ptr %this.addr, align 8
  store double %number, ptr %number.addr, align 8
  store ptr %toInsertInto, ptr %toInsertInto.addr, align 8
  store i32 %_pos, ptr %_pos.addr, align 4
  store i32 %recursionCount, ptr %recursionCount.addr, align 4
  store ptr %status, ptr %status.addr, align 8
  %this1 = load ptr, ptr %this.addr, align 8
  %0 = load double, ptr %number.addr, align 8
  %vtable = load ptr, ptr %this1, align 8
  %vfn = getelementptr inbounds ptr, ptr %vtable, i64 9
  %1 = load ptr, ptr %vfn, align 8
  %call = call noundef double %1(ptr noundef nonnull align 8 dereferenceable(32) %this1, double noundef %0)
  store double %call, ptr %numberToFormat, align 8
  %2 = load double, ptr %numberToFormat, align 8
  %call2 = call signext i8 @uprv_isInfinite_75(double noundef %2)
  %tobool = icmp ne i8 %call2, 0
  br i1 %tobool, label %if.then, label %if.end

if.then:                                          ; preds = %entry
  %ruleSet = getelementptr inbounds %"class.icu_75::NFSubstitution", ptr %this1, i32 0, i32 2
  %3 = load ptr, ptr %ruleSet, align 8
  %call3 = call double @uprv_getInfinity_75()
  %call4 = call noundef ptr @_ZNK6icu_759NFRuleSet14findDoubleRuleEd(ptr noundef nonnull align 8 dereferenceable(163) %3, double noundef %call3)
  store ptr %call4, ptr %infiniteRule, align 8
  %4 = load ptr, ptr %infiniteRule, align 8
  %5 = load double, ptr %numberToFormat, align 8
  %6 = load ptr, ptr %toInsertInto.addr, align 8
  %7 = load i32, ptr %_pos.addr, align 4
  %pos = getelementptr inbounds %"class.icu_75::NFSubstitution", ptr %this1, i32 0, i32 1
  %8 = load i32, ptr %pos, align 8
  %add = add nsw i32 %7, %8
  %9 = load i32, ptr %recursionCount.addr, align 4
  %10 = load ptr, ptr %status.addr, align 8
  call void @_ZNK6icu_756NFRule8doFormatEdRNS_13UnicodeStringEiiR10UErrorCode(ptr noundef nonnull align 8 dereferenceable(112) %4, double noundef %5, ptr noundef nonnull align 8 dereferenceable(64) %6, i32 noundef %add, i32 noundef %9, ptr noundef nonnull align 4 dereferenceable(4) %10)
  br label %if.end30

if.end:                                           ; preds = %entry
  %11 = load double, ptr %numberToFormat, align 8
  %12 = load double, ptr %numberToFormat, align 8
  %call5 = call double @uprv_floor_75(double noundef %12)
  %cmp = fcmp oeq double %11, %call5
  br i1 %cmp, label %land.lhs.true, label %if.else

land.lhs.true:                                    ; preds = %if.end
  %ruleSet6 = getelementptr inbounds %"class.icu_75::NFSubstitution", ptr %this1, i32 0, i32 2
  %13 = load ptr, ptr %ruleSet6, align 8
  %cmp7 = icmp ne ptr %13, null
  br i1 %cmp7, label %if.then8, label %if.else

if.then8:                                         ; preds = %land.lhs.true
  %ruleSet9 = getelementptr inbounds %"class.icu_75::NFSubstitution", ptr %this1, i32 0, i32 2
  %14 = load ptr, ptr %ruleSet9, align 8
  %15 = load double, ptr %numberToFormat, align 8
  %call10 = call noundef i64 @_ZN6icu_7517util64_fromDoubleEd(double noundef %15)
  %16 = load ptr, ptr %toInsertInto.addr, align 8
  %17 = load i32, ptr %_pos.addr, align 4
  %pos11 = getelementptr inbounds %"class.icu_75::NFSubstitution", ptr %this1, i32 0, i32 1
  %18 = load i32, ptr %pos11, align 8
  %add12 = add nsw i32 %17, %18
  %19 = load i32, ptr %recursionCount.addr, align 4
  %20 = load ptr, ptr %status.addr, align 8
  call void @_ZNK6icu_759NFRuleSet6formatElRNS_13UnicodeStringEiiR10UErrorCode(ptr noundef nonnull align 8 dereferenceable(163) %14, i64 noundef %call10, ptr noundef nonnull align 8 dereferenceable(64) %16, i32 noundef %add12, i32 noundef %19, ptr noundef nonnull align 4 dereferenceable(4) %20)
  br label %if.end30

if.else:                                          ; preds = %land.lhs.true, %if.end
  %ruleSet13 = getelementptr inbounds %"class.icu_75::NFSubstitution", ptr %this1, i32 0, i32 2
  %21 = load ptr, ptr %ruleSet13, align 8
  %cmp14 = icmp ne ptr %21, null
  br i1 %cmp14, label %if.then15, label %if.else19

if.then15:                                        ; preds = %if.else
  %ruleSet16 = getelementptr inbounds %"class.icu_75::NFSubstitution", ptr %this1, i32 0, i32 2
  %22 = load ptr, ptr %ruleSet16, align 8
  %23 = load double, ptr %numberToFormat, align 8
  %24 = load ptr, ptr %toInsertInto.addr, align 8
  %25 = load i32, ptr %_pos.addr, align 4
  %pos17 = getelementptr inbounds %"class.icu_75::NFSubstitution", ptr %this1, i32 0, i32 1
  %26 = load i32, ptr %pos17, align 8
  %add18 = add nsw i32 %25, %26
  %27 = load i32, ptr %recursionCount.addr, align 4
  %28 = load ptr, ptr %status.addr, align 8
  call void @_ZNK6icu_759NFRuleSet6formatEdRNS_13UnicodeStringEiiR10UErrorCode(ptr noundef nonnull align 8 dereferenceable(163) %22, double noundef %23, ptr noundef nonnull align 8 dereferenceable(64) %24, i32 noundef %add18, i32 noundef %27, ptr noundef nonnull align 4 dereferenceable(4) %28)
  br label %if.end29

if.else19:                                        ; preds = %if.else
  %numberFormat = getelementptr inbounds %"class.icu_75::NFSubstitution", ptr %this1, i32 0, i32 3
  %29 = load ptr, ptr %numberFormat, align 8
  %cmp20 = icmp ne ptr %29, null
  br i1 %cmp20, label %if.then21, label %if.end28

if.then21:                                        ; preds = %if.else19
  call void @_ZN6icu_7513UnicodeStringC2Ev(ptr noundef nonnull align 8 dereferenceable(64) %temp)
  %numberFormat22 = getelementptr inbounds %"class.icu_75::NFSubstitution", ptr %this1, i32 0, i32 3
  %30 = load ptr, ptr %numberFormat22, align 8
  %31 = load double, ptr %numberToFormat, align 8
  %call23 = invoke noundef nonnull align 8 dereferenceable(64) ptr @_ZNK6icu_7512NumberFormat6formatEdRNS_13UnicodeStringE(ptr noundef nonnull align 8 dereferenceable(356) %30, double noundef %31, ptr noundef nonnull align 8 dereferenceable(64) %temp)
          to label %invoke.cont unwind label %lpad

invoke.cont:                                      ; preds = %if.then21
  %32 = load ptr, ptr %toInsertInto.addr, align 8
  %33 = load i32, ptr %_pos.addr, align 4
  %pos24 = getelementptr inbounds %"class.icu_75::NFSubstitution", ptr %this1, i32 0, i32 1
  %34 = load i32, ptr %pos24, align 8
  %add25 = add nsw i32 %33, %34
  %call27 = invoke noundef nonnull align 8 dereferenceable(64) ptr @_ZN6icu_7513UnicodeString6insertEiRKS0_(ptr noundef nonnull align 8 dereferenceable(64) %32, i32 noundef %add25, ptr noundef nonnull align 8 dereferenceable(64) %temp)
          to label %invoke.cont26 unwind label %lpad

invoke.cont26:                                    ; preds = %invoke.cont
  call void @_ZN6icu_7513UnicodeStringD1Ev(ptr noundef nonnull align 8 dereferenceable(64) %temp) #6
  br label %if.end28

lpad:                                             ; preds = %invoke.cont, %if.then21
  %35 = landingpad { ptr, i32 }
          cleanup
  %36 = extractvalue { ptr, i32 } %35, 0
  store ptr %36, ptr %exn.slot, align 8
  %37 = extractvalue { ptr, i32 } %35, 1
  store i32 %37, ptr %ehselector.slot, align 4
  call void @_ZN6icu_7513UnicodeStringD1Ev(ptr noundef nonnull align 8 dereferenceable(64) %temp) #6
  br label %eh.resume

if.end28:                                         ; preds = %invoke.cont26, %if.else19
  br label %if.end29

if.end29:                                         ; preds = %if.end28, %if.then15
  br label %if.end30

if.end30:                                         ; preds = %if.end29, %if.then8, %if.then
  ret void

eh.resume:                                        ; preds = %lpad
  %exn = load ptr, ptr %exn.slot, align 8
  %sel = load i32, ptr %ehselector.slot, align 4
  %lpad.val = insertvalue { ptr, i32 } poison, ptr %exn, 0
  %lpad.val31 = insertvalue { ptr, i32 } %lpad.val, i32 %sel, 1
  resume { ptr, i32 } %lpad.val31
}