; Function Attrs: mustprogress uwtable
define void @_ZNK6icu_7514NFSubstitution14doSubstitutionEdRNS_13UnicodeStringEiiR10UErrorCode(ptr noundef nonnull align 8 dereferenceable(32) %this, double noundef %number, ptr noundef nonnull align 8 dereferenceable(64) %toInsertInto, i32 noundef %_pos, i32 noundef %recursionCount, ptr noundef nonnull align 4 dereferenceable(4) %status) unnamed_addr #2 align 2 personality ptr @__gxx_personality_v0 {
entry:
  %temp = alloca %"class.icu_75::UnicodeString", align 8
  %vtable = load ptr, ptr %this, align 8
  %vfn = getelementptr inbounds i8, ptr %vtable, i64 72
  %0 = load ptr, ptr %vfn, align 8
  %call = tail call noundef double %0(ptr noundef nonnull align 8 dereferenceable(32) %this, double noundef %number)
  %call2 = tail call signext i8 @uprv_isInfinite_75(double noundef %call)
  %tobool.not = icmp eq i8 %call2, 0
  br i1 %tobool.not, label %if.end, label %if.then

if.then:                                          ; preds = %entry
  %ruleSet = getelementptr inbounds i8, ptr %this, i64 16
  %1 = load ptr, ptr %ruleSet, align 8
  %call3 = tail call double @uprv_getInfinity_75()
  %call4 = tail call noundef ptr @_ZNK6icu_759NFRuleSet14findDoubleRuleEd(ptr noundef nonnull align 8 dereferenceable(163) %1, double noundef %call3)
  %pos = getelementptr inbounds i8, ptr %this, i64 8
  %2 = load i32, ptr %pos, align 8
  %add = add nsw i32 %2, %_pos
  tail call void @_ZNK6icu_756NFRule8doFormatEdRNS_13UnicodeStringEiiR10UErrorCode(ptr noundef nonnull align 8 dereferenceable(112) %call4, double noundef %call, ptr noundef nonnull align 8 dereferenceable(64) %toInsertInto, i32 noundef %add, i32 noundef %recursionCount, ptr noundef nonnull align 4 dereferenceable(4) %status)
  br label %if.end30

if.end:                                           ; preds = %entry
  %call5 = tail call double @uprv_floor_75(double noundef %call)
  %cmp = fcmp oeq double %call, %call5
  %ruleSet6 = getelementptr inbounds i8, ptr %this, i64 16
  %3 = load ptr, ptr %ruleSet6, align 8
  %cmp7.not = icmp eq ptr %3, null
  br i1 %cmp, label %land.lhs.true, label %if.else

land.lhs.true:                                    ; preds = %if.end
  br i1 %cmp7.not, label %if.else19, label %if.then8

if.then8:                                         ; preds = %land.lhs.true
  %call10 = tail call noundef i64 @_ZN6icu_7517util64_fromDoubleEd(double noundef %call)
  %pos11 = getelementptr inbounds i8, ptr %this, i64 8
  %4 = load i32, ptr %pos11, align 8
  %add12 = add nsw i32 %4, %_pos
  tail call void @_ZNK6icu_759NFRuleSet6formatElRNS_13UnicodeStringEiiR10UErrorCode(ptr noundef nonnull align 8 dereferenceable(163) %3, i64 noundef %call10, ptr noundef nonnull align 8 dereferenceable(64) %toInsertInto, i32 noundef %add12, i32 noundef %recursionCount, ptr noundef nonnull align 4 dereferenceable(4) %status)
  br label %if.end30

if.else:                                          ; preds = %if.end
  br i1 %cmp7.not, label %if.else19, label %if.then15

if.then15:                                        ; preds = %if.else
  %pos17 = getelementptr inbounds i8, ptr %this, i64 8
  %5 = load i32, ptr %pos17, align 8
  %add18 = add nsw i32 %5, %_pos
  tail call void @_ZNK6icu_759NFRuleSet6formatEdRNS_13UnicodeStringEiiR10UErrorCode(ptr noundef nonnull align 8 dereferenceable(163) %3, double noundef %call, ptr noundef nonnull align 8 dereferenceable(64) %toInsertInto, i32 noundef %add18, i32 noundef %recursionCount, ptr noundef nonnull align 4 dereferenceable(4) %status)
  br label %if.end30

if.else19:                                        ; preds = %land.lhs.true, %if.else
  %numberFormat = getelementptr inbounds i8, ptr %this, i64 24
  %6 = load ptr, ptr %numberFormat, align 8
  %cmp20.not = icmp eq ptr %6, null
  br i1 %cmp20.not, label %if.end30, label %if.then21

if.then21:                                        ; preds = %if.else19
  store ptr getelementptr inbounds ({ [13 x ptr] }, ptr @_ZTVN6icu_7513UnicodeStringE, i64 0, i32 0, i64 2), ptr %temp, align 8
  %fUnion2.i = getelementptr inbounds i8, ptr %temp, i64 8
  store i16 2, ptr %fUnion2.i, align 8
  %call23 = invoke noundef nonnull align 8 dereferenceable(64) ptr @_ZNK6icu_7512NumberFormat6formatEdRNS_13UnicodeStringE(ptr noundef nonnull align 8 dereferenceable(356) %6, double noundef %call, ptr noundef nonnull align 8 dereferenceable(64) %temp)
          to label %invoke.cont unwind label %lpad

invoke.cont:                                      ; preds = %if.then21
  %pos24 = getelementptr inbounds i8, ptr %this, i64 8
  %7 = load i32, ptr %pos24, align 8
  %add25 = add nsw i32 %7, %_pos
  %8 = load i16, ptr %fUnion2.i, align 8
  %cmp.i.i.i = icmp slt i16 %8, 0
  %9 = ashr i16 %8, 5
  %shr.i.i.i = sext i16 %9 to i32
  %fLength.i.i = getelementptr inbounds i8, ptr %temp, i64 12
  %10 = load i32, ptr %fLength.i.i, align 4
  %cond.i.i = select i1 %cmp.i.i.i, i32 %10, i32 %shr.i.i.i
  %call2.i18 = invoke noundef nonnull align 8 dereferenceable(64) ptr @_ZN6icu_7513UnicodeString9doReplaceEiiRKS0_ii(ptr noundef nonnull align 8 dereferenceable(64) %toInsertInto, i32 noundef %add25, i32 noundef 0, ptr noundef nonnull align 8 dereferenceable(64) %temp, i32 noundef 0, i32 noundef %cond.i.i)
          to label %invoke.cont26 unwind label %lpad

invoke.cont26:                                    ; preds = %invoke.cont
  call void @_ZN6icu_7513UnicodeStringD1Ev(ptr noundef nonnull align 8 dereferenceable(64) %temp) #11
  br label %if.end30

lpad:                                             ; preds = %invoke.cont, %if.then21
  %11 = landingpad { ptr, i32 }
          cleanup
  call void @_ZN6icu_7513UnicodeStringD1Ev(ptr noundef nonnull align 8 dereferenceable(64) %temp) #11
  resume { ptr, i32 } %11

if.end30:                                         ; preds = %if.then15, %invoke.cont26, %if.else19, %if.then8, %if.then
  ret void
}